target datalayout = "e-m:e-p270:32:32-p271:32:32-p272:64:64-i64:64-i128:128-f80:128-n8:16:32:64-S128"
target triple = "x86_64-pc-linux-gnu"

%struct._lv_freetype_image_cache_data_t = type { i32, i32, ptr }

; Function Attrs: nounwind uwtable
define internal signext i8 @freetype_image_compare_cb(ptr noundef %0, ptr noundef %1) #0 {
  %3 = alloca i8, align 1
  %4 = alloca ptr, align 8
  %5 = alloca ptr, align 8
  store ptr %0, ptr %4, align 8, !tbaa !7
  store ptr %1, ptr %5, align 8, !tbaa !7
  %6 = load ptr, ptr %4, align 8, !tbaa !7
  %7 = getelementptr inbounds nuw %struct._lv_freetype_image_cache_data_t, ptr %6, i32 0, i32 0
  %8 = load i32, ptr %7, align 8, !tbaa !9
  %9 = load ptr, ptr %5, align 8, !tbaa !7
  %10 = getelementptr inbounds nuw %struct._lv_freetype_image_cache_data_t, ptr %9, i32 0, i32 0
  %11 = load i32, ptr %10, align 8, !tbaa !9
  %12 = icmp ne i32 %8, %11
  br i1 %12, label %13, label %23

13:                                               ; preds = %2
  %14 = load ptr, ptr %4, align 8, !tbaa !7
  %15 = getelementptr inbounds nuw %struct._lv_freetype_image_cache_data_t, ptr %14, i32 0, i32 0
  %16 = load i32, ptr %15, align 8, !tbaa !9
  %17 = load ptr, ptr %5, align 8, !tbaa !7
  %18 = getelementptr inbounds nuw %struct._lv_freetype_image_cache_data_t, ptr %17, i32 0, i32 0
  %19 = load i32, ptr %18, align 8, !tbaa !9
  %20 = icmp ugt i32 %16, %19
  %21 = select i1 %20, i32 1, i32 -1
  %22 = trunc i32 %21 to i8
  store i8 %22, ptr %3, align 1
  br label %42

23:                                               ; preds = %2
  %24 = load ptr, ptr %4, align 8, !tbaa !7
  %25 = getelementptr inbounds nuw %struct._lv_freetype_image_cache_data_t, ptr %24, i32 0, i32 1
  %26 = load i32, ptr %25, align 4, !tbaa !11
  %27 = load ptr, ptr %5, align 8, !tbaa !7
  %28 = getelementptr inbounds nuw %struct._lv_freetype_image_cache_data_t, ptr %27, i32 0, i32 1
  %29 = load i32, ptr %28, align 4, !tbaa !11
  %30 = icmp ne i32 %26, %29
  br i1 %30, label %31, label %41

31:                                               ; preds = %23
  %32 = load ptr, ptr %4, align 8, !tbaa !7
  %33 = getelementptr inbounds nuw %struct._lv_freetype_image_cache_data_t, ptr %32, i32 0, i32 1
  %34 = load i32, ptr %33, align 4, !tbaa !11
  %35 = load ptr, ptr %5, align 8, !tbaa !7
  %36 = getelementptr inbounds nuw %struct._lv_freetype_image_cache_data_t, ptr %35, i32 0, i32 1
  %37 = load i32, ptr %36, align 4, !tbaa !11
  %38 = icmp ugt i32 %34, %37
  %39 = select i1 %38, i32 1, i32 -1
  %40 = trunc i32 %39 to i8
  store i8 %40, ptr %3, align 1
  br label %42

41:                                               ; preds = %23
  store i8 0, ptr %3, align 1
  br label %42

42:                                               ; preds = %41, %31, %13
  %43 = load i8, ptr %3, align 1
  ret i8 %43
}